target datalayout = "e-m:e-p270:32:32-p271:32:32-p272:64:64-i64:64-i128:128-f80:128-n8:16:32:64-S128"
target triple = "x86_64-pc-linux-gnu"

; Function Attrs: nounwind uwtable
define dso_local void @bit_set(ptr noundef %0, i64 noundef %1) #0 {
  %3 = alloca ptr, align 8
  %4 = alloca i64, align 8
  store ptr %0, ptr %3, align 8
  store i64 %1, ptr %4, align 8
  br label %5

5:                                                ; preds = %2
  br label %6

6:                                                ; preds = %5
  br label %7

7:                                                ; preds = %6
  br label %8

8:                                                ; preds = %7
  %9 = load i64, ptr %4, align 8
  %10 = and i64 %9, 63
  %11 = shl i64 1, %10
  %12 = load ptr, ptr %3, align 8
  %13 = load i64, ptr %4, align 8
  %14 = ashr i64 %13, 6
  %15 = add nsw i64 %14, 2
  %16 = getelementptr inbounds i64, ptr %12, i64 %15
  %17 = load i64, ptr %16, align 8
  %18 = or i64 %17, %11
  store i64 %18, ptr %16, align 8
  ret void
}