; Function Attrs: mustprogress nofree norecurse nosync nounwind willreturn memory(argmem: readwrite) uwtable
define dso_local void @bit_set(ptr noundef captures(none) %0, i64 noundef %1) #1 {
  %3 = and i64 %1, 63
  %4 = shl nuw i64 1, %3
  %5 = ashr i64 %1, 6
  %6 = getelementptr i64, ptr %0, i64 %5
  %7 = getelementptr i8, ptr %6, i64 16
  %8 = load i64, ptr %7, align 8
  %9 = or i64 %8, %4
  store i64 %9, ptr %7, align 8
  ret void
}